; Function Attrs: mustprogress nofree norecurse nosync nounwind memory(read, argmem: readwrite, inaccessiblemem: none) uwtable
define hidden void @_ZN6Assimp14FindMeshCenterEP6aiMeshR10aiVector3tIfES4_S4_(ptr noundef readonly captures(none) %0, ptr noundef nonnull writeonly align 4 captures(none) dereferenceable(12) %1, ptr noundef nonnull align 4 captures(none) dereferenceable(12) initializes((0, 12)) %2, ptr noundef nonnull align 4 captures(none) dereferenceable(12) initializes((0, 12)) %3) local_unnamed_addr #3 {
  %5 = getelementptr inbounds nuw i8, ptr %0, i64 16
  %6 = load ptr, ptr %5, align 8
  %7 = getelementptr inbounds nuw i8, ptr %0, i64 4
  %8 = load i32, ptr %7, align 4
  store float -1.000000e+10, ptr %3, align 4
  %.sroa.43.0..sroa_idx.i.i = getelementptr inbounds nuw i8, ptr %3, i64 4
  store float -1.000000e+10, ptr %.sroa.43.0..sroa_idx.i.i, align 4
  %.sroa.54.0..sroa_idx.i.i = getelementptr inbounds nuw i8, ptr %3, i64 8
  store float -1.000000e+10, ptr %.sroa.54.0..sroa_idx.i.i, align 4
  store float 1.000000e+10, ptr %2, align 4
  %.sroa.4.0..sroa_idx.i.i = getelementptr inbounds nuw i8, ptr %2, i64 4
  store float 1.000000e+10, ptr %.sroa.4.0..sroa_idx.i.i, align 4
  %.sroa.5.0..sroa_idx.i.i = getelementptr inbounds nuw i8, ptr %2, i64 8
  store float 1.000000e+10, ptr %.sroa.5.0..sroa_idx.i.i, align 4
  %.not.i = icmp eq i32 %8, 0
  br i1 %.not.i, label %._ZN6Assimp11ArrayBoundsI10aiVector3tIfEEEvPKT_jRS3_S6_.exit_crit_edge, label %.lr.ph.preheader.i

._ZN6Assimp11ArrayBoundsI10aiVector3tIfEEEvPKT_jRS3_S6_.exit_crit_edge: ; preds = %4
  %.pre = load float, ptr %3, align 4
  %.pre28 = load float, ptr %.sroa.43.0..sroa_idx.i.i, align 4
  %.pre30 = load float, ptr %.sroa.54.0..sroa_idx.i.i, align 4
  br label %_ZN6Assimp11ArrayBoundsI10aiVector3tIfEEEvPKT_jRS3_S6_.exit

.lr.ph.preheader.i:                               ; preds = %4
  %wide.trip.count.i = zext i32 %8 to i64
  br label %.lr.ph.i

.lr.ph.i:                                         ; preds = %.lr.ph.i, %.lr.ph.preheader.i
  %indvars.iv.i = phi i64 [ 0, %.lr.ph.preheader.i ], [ %indvars.iv.next.i, %.lr.ph.i ]
  %9 = getelementptr inbounds nuw %class.aiVector3t, ptr %6, i64 %indvars.iv.i
  %10 = load float, ptr %2, align 4
  %11 = load float, ptr %9, align 4
  %12 = fcmp olt float %10, %11
  %13 = select i1 %12, float %10, float %11
  %14 = getelementptr inbounds nuw i8, ptr %9, i64 4
  %15 = load float, ptr %.sroa.4.0..sroa_idx.i.i, align 4
  %16 = load float, ptr %14, align 4
  %17 = fcmp olt float %15, %16
  %18 = select i1 %17, float %15, float %16
  %19 = getelementptr inbounds nuw i8, ptr %9, i64 8
  %20 = load float, ptr %.sroa.5.0..sroa_idx.i.i, align 4
  %21 = load float, ptr %19, align 4
  %22 = fcmp olt float %20, %21
  %23 = select i1 %22, float %20, float %21
  %.sroa.0.0.vec.insert.i.i = insertelement <2 x float> poison, float %13, i64 0
  %.sroa.0.4.vec.insert.i.i = insertelement <2 x float> %.sroa.0.0.vec.insert.i.i, float %18, i64 1
  store <2 x float> %.sroa.0.4.vec.insert.i.i, ptr %2, align 4
  store float %23, ptr %.sroa.5.0..sroa_idx.i.i, align 4
  %24 = load float, ptr %9, align 4
  %25 = load float, ptr %3, align 4
  %26 = fcmp olt float %24, %25
  %27 = select i1 %26, float %25, float %24
  %28 = load float, ptr %14, align 4
  %29 = load float, ptr %.sroa.43.0..sroa_idx.i.i, align 4
  %30 = fcmp olt float %28, %29
  %31 = select i1 %30, float %29, float %28
  %32 = load float, ptr %19, align 4
  %33 = load float, ptr %.sroa.54.0..sroa_idx.i.i, align 4
  %34 = fcmp olt float %32, %33
  %35 = select i1 %34, float %33, float %32
  %.sroa.0.0.vec.insert.i19.i = insertelement <2 x float> poison, float %27, i64 0
  %.sroa.0.4.vec.insert.i20.i = insertelement <2 x float> %.sroa.0.0.vec.insert.i19.i, float %31, i64 1
  store <2 x float> %.sroa.0.4.vec.insert.i20.i, ptr %3, align 4
  store float %35, ptr %.sroa.54.0..sroa_idx.i.i, align 4
  %indvars.iv.next.i = add nuw nsw i64 %indvars.iv.i, 1
  %exitcond.not.i = icmp eq i64 %indvars.iv.next.i, %wide.trip.count.i
  br i1 %exitcond.not.i, label %_ZN6Assimp11ArrayBoundsI10aiVector3tIfEEEvPKT_jRS3_S6_.exit.loopexit, label %.lr.ph.i, !llvm.loop !12

_ZN6Assimp11ArrayBoundsI10aiVector3tIfEEEvPKT_jRS3_S6_.exit.loopexit: ; preds = %.lr.ph.i
  %.pre27 = load float, ptr %2, align 4
  %.pre29 = load float, ptr %.sroa.4.0..sroa_idx.i.i, align 4
  %.pre31 = load float, ptr %.sroa.5.0..sroa_idx.i.i, align 4
  br label %_ZN6Assimp11ArrayBoundsI10aiVector3tIfEEEvPKT_jRS3_S6_.exit

_ZN6Assimp11ArrayBoundsI10aiVector3tIfEEEvPKT_jRS3_S6_.exit: ; preds = %._ZN6Assimp11ArrayBoundsI10aiVector3tIfEEEvPKT_jRS3_S6_.exit_crit_edge, %_ZN6Assimp11ArrayBoundsI10aiVector3tIfEEEvPKT_jRS3_S6_.exit.loopexit
  %36 = phi float [ 1.000000e+10, %._ZN6Assimp11ArrayBoundsI10aiVector3tIfEEEvPKT_jRS3_S6_.exit_crit_edge ], [ %.pre31, %_ZN6Assimp11ArrayBoundsI10aiVector3tIfEEEvPKT_jRS3_S6_.exit.loopexit ]
  %37 = phi float [ %.pre30, %._ZN6Assimp11ArrayBoundsI10aiVector3tIfEEEvPKT_jRS3_S6_.exit_crit_edge ], [ %35, %_ZN6Assimp11ArrayBoundsI10aiVector3tIfEEEvPKT_jRS3_S6_.exit.loopexit ]
  %38 = phi float [ 1.000000e+10, %._ZN6Assimp11ArrayBoundsI10aiVector3tIfEEEvPKT_jRS3_S6_.exit_crit_edge ], [ %.pre29, %_ZN6Assimp11ArrayBoundsI10aiVector3tIfEEEvPKT_jRS3_S6_.exit.loopexit ]
  %39 = phi float [ %.pre28, %._ZN6Assimp11ArrayBoundsI10aiVector3tIfEEEvPKT_jRS3_S6_.exit_crit_edge ], [ %31, %_ZN6Assimp11ArrayBoundsI10aiVector3tIfEEEvPKT_jRS3_S6_.exit.loopexit ]
  %40 = phi float [ 1.000000e+10, %._ZN6Assimp11ArrayBoundsI10aiVector3tIfEEEvPKT_jRS3_S6_.exit_crit_edge ], [ %.pre27, %_ZN6Assimp11ArrayBoundsI10aiVector3tIfEEEvPKT_jRS3_S6_.exit.loopexit ]
  %41 = phi float [ %.pre, %._ZN6Assimp11ArrayBoundsI10aiVector3tIfEEEvPKT_jRS3_S6_.exit_crit_edge ], [ %27, %_ZN6Assimp11ArrayBoundsI10aiVector3tIfEEEvPKT_jRS3_S6_.exit.loopexit ]
  %42 = fsub float %41, %40
  %43 = fsub float %39, %38
  %44 = fsub float %37, %36
  %45 = fmul float %42, 5.000000e-01
  %46 = fmul float %43, 5.000000e-01
  %47 = fmul float %44, 5.000000e-01
  %48 = fadd float %40, %45
  %49 = fadd float %38, %46
  %50 = fadd float %36, %47
  %.sroa.0.0.vec.insert.i21 = insertelement <2 x float> poison, float %48, i64 0
  %.sroa.0.4.vec.insert.i22 = insertelement <2 x float> %.sroa.0.0.vec.insert.i21, float %49, i64 1
  store <2 x float> %.sroa.0.4.vec.insert.i22, ptr %1, align 4
  %.sroa.4.0..sroa_idx = getelementptr inbounds nuw i8, ptr %1, i64 8
  store float %50, ptr %.sroa.4.0..sroa_idx, align 4
  ret void
}